	.cpu arm7tdmi
	.eabi_attribute 20, 1
	.eabi_attribute 21, 1
	.eabi_attribute 23, 3
	.eabi_attribute 24, 1
	.eabi_attribute 25, 1
	.eabi_attribute 26, 1
	.eabi_attribute 30, 2
	.eabi_attribute 34, 0
	.eabi_attribute 18, 4
	.file	"main.c"
	.text
	.section	.text.startup,"ax",%progbits
	.align	2
	.global	main
	.arch armv4t
	.syntax unified
	.arm
	.fpu softvfp
	.type	main, %function
main:
	@ Function supports interworking.
	@ Volatile: function does not return.
	@ args = 0, pretend = 0, frame = 0
	@ frame_needed = 0, uses_anonymous_args = 0
	@ link register save eliminated.
	mov	r3, #67108864
	mov	r2, #7168
	mov	r1, #4608
	strh	r2, [r3, #10]	@ movhi
	ldr	r2, .L4
	strh	r1, [r3]	@ movhi
	ldrh	r1, [r2]
	ldr	r2, .L4+4
	strh	r1, [r3, #16]	@ movhi
	ldrh	r1, [r2]
	ldr	r2, .L4+8
	strh	r1, [r3, #18]	@ movhi
	ldr	r0, .L4+12
	ldrh	r3, [r2]
	ldr	r1, .L4+16
.L2:
	strh	r3, [r0]	@ movhi
	ldrh	r3, [r1, #48]
	strh	r3, [r2]	@ movhi
	b	.L2
.L5:
	.align	2
.L4:
	.word	hOff
	.word	vOff
	.word	buttons
	.word	oldButtons
	.word	67109120
	.size	main, .-main
	.text
	.align	2
	.global	initialize
	.syntax unified
	.arm
	.fpu softvfp
	.type	initialize, %function
initialize:
	@ Function supports interworking.
	@ args = 0, pretend = 0, frame = 0
	@ frame_needed = 0, uses_anonymous_args = 0
	@ link register save eliminated.
	mov	r3, #67108864
	mov	r2, #7168
	mov	r1, #4608
	strh	r2, [r3, #10]	@ movhi
	ldr	r2, .L7
	strh	r1, [r3]	@ movhi
	ldrh	r1, [r2]
	ldr	r2, .L7+4
	ldrh	r2, [r2]
	strh	r1, [r3, #16]	@ movhi
	strh	r2, [r3, #18]	@ movhi
	bx	lr
.L8:
	.align	2
.L7:
	.word	hOff
	.word	vOff
	.size	initialize, .-initialize
	.align	2
	.global	goToStart
	.syntax unified
	.arm
	.fpu softvfp
	.type	goToStart, %function
goToStart:
	@ Function supports interworking.
	@ args = 0, pretend = 0, frame = 0
	@ frame_needed = 0, uses_anonymous_args = 0
	@ link register save eliminated.
	bx	lr
	.size	goToStart, .-goToStart
	.align	2
	.global	start
	.syntax unified
	.arm
	.fpu softvfp
	.type	start, %function
start:
	@ Function supports interworking.
	@ args = 0, pretend = 0, frame = 0
	@ frame_needed = 0, uses_anonymous_args = 0
	@ link register save eliminated.
	bx	lr
	.size	start, .-start
	.align	2
	.global	goToGame
	.syntax unified
	.arm
	.fpu softvfp
	.type	goToGame, %function
goToGame:
	@ Function supports interworking.
	@ args = 0, pretend = 0, frame = 0
	@ frame_needed = 0, uses_anonymous_args = 0
	@ link register save eliminated.
	bx	lr
	.size	goToGame, .-goToGame
	.align	2
	.global	game
	.syntax unified
	.arm
	.fpu softvfp
	.type	game, %function
game:
	@ Function supports interworking.
	@ args = 0, pretend = 0, frame = 0
	@ frame_needed = 0, uses_anonymous_args = 0
	@ link register save eliminated.
	bx	lr
	.size	game, .-game
	.align	2
	.global	goToInstructions
	.syntax unified
	.arm
	.fpu softvfp
	.type	goToInstructions, %function
goToInstructions:
	@ Function supports interworking.
	@ args = 0, pretend = 0, frame = 0
	@ frame_needed = 0, uses_anonymous_args = 0
	@ link register save eliminated.
	bx	lr
	.size	goToInstructions, .-goToInstructions
	.align	2
	.global	instructions
	.syntax unified
	.arm
	.fpu softvfp
	.type	instructions, %function
instructions:
	@ Function supports interworking.
	@ args = 0, pretend = 0, frame = 0
	@ frame_needed = 0, uses_anonymous_args = 0
	@ link register save eliminated.
	bx	lr
	.size	instructions, .-instructions
	.align	2
	.global	goToCredits
	.syntax unified
	.arm
	.fpu softvfp
	.type	goToCredits, %function
goToCredits:
	@ Function supports interworking.
	@ args = 0, pretend = 0, frame = 0
	@ frame_needed = 0, uses_anonymous_args = 0
	@ link register save eliminated.
	bx	lr
	.size	goToCredits, .-goToCredits
	.align	2
	.global	credits
	.syntax unified
	.arm
	.fpu softvfp
	.type	credits, %function
credits:
	@ Function supports interworking.
	@ args = 0, pretend = 0, frame = 0
	@ frame_needed = 0, uses_anonymous_args = 0
	@ link register save eliminated.
	bx	lr
	.size	credits, .-credits
	.align	2
	.global	goToPause
	.syntax unified
	.arm
	.fpu softvfp
	.type	goToPause, %function
goToPause:
	@ Function supports interworking.
	@ args = 0, pretend = 0, frame = 0
	@ frame_needed = 0, uses_anonymous_args = 0
	@ link register save eliminated.
	bx	lr
	.size	goToPause, .-goToPause
	.align	2
	.global	pause
	.syntax unified
	.arm
	.fpu softvfp
	.type	pause, %function
pause:
	@ Function supports interworking.
	@ args = 0, pretend = 0, frame = 0
	@ frame_needed = 0, uses_anonymous_args = 0
	@ link register save eliminated.
	bx	lr
	.size	pause, .-pause
	.align	2
	.global	goToLose
	.syntax unified
	.arm
	.fpu softvfp
	.type	goToLose, %function
goToLose:
	@ Function supports interworking.
	@ args = 0, pretend = 0, frame = 0
	@ frame_needed = 0, uses_anonymous_args = 0
	@ link register save eliminated.
	bx	lr
	.size	goToLose, .-goToLose
	.align	2
	.global	lose
	.syntax unified
	.arm
	.fpu softvfp
	.type	lose, %function
lose:
	@ Function supports interworking.
	@ args = 0, pretend = 0, frame = 0
	@ frame_needed = 0, uses_anonymous_args = 0
	@ link register save eliminated.
	bx	lr
	.size	lose, .-lose
	.comm	state,4,4
	.comm	shadowOAM,1024,4
	.comm	vOff,4,4
	.comm	hOff,4,4
	.comm	oldButtons,2,2
	.comm	buttons,2,2
	.ident	"GCC: (devkitARM release 53) 9.1.0"
